target datalayout = "e-m:e-p270:32:32-p271:32:32-p272:64:64-i64:64-i128:128-f80:128-n8:16:32:64-S128"
target triple = "x86_64-pc-linux-gnu"

%struct.group = type { ptr, ptr, i32, ptr }
%struct.uv_group_s = type { ptr, i64, ptr }

; Function Attrs: nounwind uwtable
define dso_local i32 @uv_os_get_group(ptr noundef %0, i32 noundef %1) #0 {
  %3 = alloca i32, align 4
  %4 = alloca ptr, align 8
  %5 = alloca i32, align 4
  %6 = alloca %struct.group, align 8
  %7 = alloca ptr, align 8
  %8 = alloca ptr, align 8
  %9 = alloca ptr, align 8
  %10 = alloca i64, align 8
  %11 = alloca i64, align 8
  %12 = alloca i64, align 8
  %13 = alloca i64, align 8
  %14 = alloca i32, align 4
  %15 = alloca i32, align 4
  store ptr %0, ptr %4, align 8
  store i32 %1, ptr %5, align 4
  call void @llvm.lifetime.start.p0(i64 32, ptr %6) #11
  call void @llvm.lifetime.start.p0(i64 8, ptr %7) #11
  call void @llvm.lifetime.start.p0(i64 8, ptr %8) #11
  call void @llvm.lifetime.start.p0(i64 8, ptr %9) #11
  call void @llvm.lifetime.start.p0(i64 8, ptr %10) #11
  call void @llvm.lifetime.start.p0(i64 8, ptr %11) #11
  call void @llvm.lifetime.start.p0(i64 8, ptr %12) #11
  call void @llvm.lifetime.start.p0(i64 8, ptr %13) #11
  call void @llvm.lifetime.start.p0(i64 4, ptr %14) #11
  %16 = load ptr, ptr %4, align 8
  %17 = icmp eq ptr %16, null
  br i1 %17, label %18, label %19

18:                                               ; preds = %2
  store i32 -22, ptr %3, align 4
  store i32 1, ptr %15, align 4
  br label %163

19:                                               ; preds = %2
  store i64 2000, ptr %10, align 8
  br label %20

20:                                               ; preds = %48, %19
  %21 = load i64, ptr %10, align 8
  %22 = call ptr @uv__malloc(i64 noundef %21)
  store ptr %22, ptr %8, align 8
  %23 = load ptr, ptr %8, align 8
  %24 = icmp eq ptr %23, null
  br i1 %24, label %25, label %26

25:                                               ; preds = %20
  store i32 -12, ptr %3, align 4
  store i32 1, ptr %15, align 4
  br label %163

26:                                               ; preds = %20
  br label %27

27:                                               ; preds = %32, %26
  %28 = load i32, ptr %5, align 4
  %29 = load ptr, ptr %8, align 8
  %30 = load i64, ptr %10, align 8
  %31 = call i32 @getgrgid_r(i32 noundef %28, ptr noundef %6, ptr noundef %29, i64 noundef %30, ptr noundef %7)
  store i32 %31, ptr %14, align 4
  br label %32

32:                                               ; preds = %27
  %33 = load i32, ptr %14, align 4
  %34 = icmp eq i32 %33, 4
  br i1 %34, label %27, label %35

35:                                               ; preds = %32
  %36 = load i32, ptr %14, align 4
  %37 = icmp ne i32 %36, 0
  br i1 %37, label %41, label %38

38:                                               ; preds = %35
  %39 = load ptr, ptr %7, align 8
  %40 = icmp eq ptr %39, null
  br i1 %40, label %41, label %43

41:                                               ; preds = %38, %35
  %42 = load ptr, ptr %8, align 8
  call void @uv__free(ptr noundef %42)
  br label %43

43:                                               ; preds = %41, %38
  %44 = load i32, ptr %14, align 4
  %45 = icmp ne i32 %44, 34
  br i1 %45, label %46, label %47

46:                                               ; preds = %43
  br label %51

47:                                               ; preds = %43
  br label %48

48:                                               ; preds = %47
  %49 = load i64, ptr %10, align 8
  %50 = mul i64 %49, 2
  store i64 %50, ptr %10, align 8
  br label %20

51:                                               ; preds = %46
  %52 = load i32, ptr %14, align 4
  %53 = icmp ne i32 %52, 0
  br i1 %53, label %54, label %57

54:                                               ; preds = %51
  %55 = load i32, ptr %14, align 4
  %56 = sub nsw i32 0, %55
  store i32 %56, ptr %3, align 4
  store i32 1, ptr %15, align 4
  br label %163

57:                                               ; preds = %51
  %58 = load ptr, ptr %7, align 8
  %59 = icmp eq ptr %58, null
  br i1 %59, label %60, label %61

60:                                               ; preds = %57
  store i32 -2, ptr %3, align 4
  store i32 1, ptr %15, align 4
  br label %163

61:                                               ; preds = %57
  %62 = getelementptr inbounds nuw %struct.group, ptr %6, i32 0, i32 0
  %63 = load ptr, ptr %62, align 8
  %64 = call i64 @strlen(ptr noundef %63) #13
  %65 = add i64 %64, 1
  store i64 %65, ptr %11, align 8
  store i64 0, ptr %12, align 8
  store i64 8, ptr %13, align 8
  store i32 0, ptr %14, align 4
  br label %66

66:                                               ; preds = %88, %61
  %67 = getelementptr inbounds nuw %struct.group, ptr %6, i32 0, i32 3
  %68 = load ptr, ptr %67, align 8
  %69 = load i32, ptr %14, align 4
  %70 = sext i32 %69 to i64
  %71 = getelementptr inbounds ptr, ptr %68, i64 %70
  %72 = load ptr, ptr %71, align 8
  %73 = icmp ne ptr %72, null
  br i1 %73, label %74, label %91

74:                                               ; preds = %66
  %75 = getelementptr inbounds nuw %struct.group, ptr %6, i32 0, i32 3
  %76 = load ptr, ptr %75, align 8
  %77 = load i32, ptr %14, align 4
  %78 = sext i32 %77 to i64
  %79 = getelementptr inbounds ptr, ptr %76, i64 %78
  %80 = load ptr, ptr %79, align 8
  %81 = call i64 @strlen(ptr noundef %80) #13
  %82 = add i64 %81, 1
  %83 = add i64 %82, 8
  %84 = load i64, ptr %13, align 8
  %85 = add i64 %84, %83
  store i64 %85, ptr %13, align 8
  %86 = load i64, ptr %12, align 8
  %87 = add nsw i64 %86, 1
  store i64 %87, ptr %12, align 8
  br label %88

88:                                               ; preds = %74
  %89 = load i32, ptr %14, align 4
  %90 = add nsw i32 %89, 1
  store i32 %90, ptr %14, align 4
  br label %66

91:                                               ; preds = %66
  %92 = load i64, ptr %11, align 8
  %93 = load i64, ptr %13, align 8
  %94 = add i64 %92, %93
  %95 = call ptr @uv__malloc(i64 noundef %94)
  store ptr %95, ptr %9, align 8
  %96 = load ptr, ptr %9, align 8
  %97 = icmp eq ptr %96, null
  br i1 %97, label %98, label %100

98:                                               ; preds = %91
  %99 = load ptr, ptr %8, align 8
  call void @uv__free(ptr noundef %99)
  store i32 -12, ptr %3, align 4
  store i32 1, ptr %15, align 4
  br label %163

100:                                              ; preds = %91
  %101 = load ptr, ptr %9, align 8
  %102 = load ptr, ptr %4, align 8
  %103 = getelementptr inbounds nuw %struct.uv_group_s, ptr %102, i32 0, i32 2
  store ptr %101, ptr %103, align 8
  %104 = load ptr, ptr %4, align 8
  %105 = getelementptr inbounds nuw %struct.uv_group_s, ptr %104, i32 0, i32 2
  %106 = load ptr, ptr %105, align 8
  %107 = load i64, ptr %12, align 8
  %108 = getelementptr inbounds ptr, ptr %106, i64 %107
  store ptr null, ptr %108, align 8
  %109 = load ptr, ptr %4, align 8
  %110 = getelementptr inbounds nuw %struct.uv_group_s, ptr %109, i32 0, i32 2
  %111 = load ptr, ptr %110, align 8
  %112 = load i64, ptr %12, align 8
  %113 = add nsw i64 %112, 1
  %114 = getelementptr inbounds ptr, ptr %111, i64 %113
  store ptr %114, ptr %9, align 8
  store i32 0, ptr %14, align 4
  br label %115

115:                                              ; preds = %141, %100
  %116 = load i32, ptr %14, align 4
  %117 = sext i32 %116 to i64
  %118 = load i64, ptr %12, align 8
  %119 = icmp slt i64 %117, %118
  br i1 %119, label %120, label %144

120:                                              ; preds = %115
  %121 = load ptr, ptr %9, align 8
  %122 = load ptr, ptr %4, align 8
  %123 = getelementptr inbounds nuw %struct.uv_group_s, ptr %122, i32 0, i32 2
  %124 = load ptr, ptr %123, align 8
  %125 = load i32, ptr %14, align 4
  %126 = sext i32 %125 to i64
  %127 = getelementptr inbounds ptr, ptr %124, i64 %126
  store ptr %121, ptr %127, align 8
  %128 = load ptr, ptr %9, align 8
  %129 = getelementptr inbounds nuw %struct.group, ptr %6, i32 0, i32 3
  %130 = load ptr, ptr %129, align 8
  %131 = load i32, ptr %14, align 4
  %132 = sext i32 %131 to i64
  %133 = getelementptr inbounds ptr, ptr %130, i64 %132
  %134 = load ptr, ptr %133, align 8
  %135 = call ptr @strcpy(ptr noundef %128, ptr noundef %134) #11
  %136 = load ptr, ptr %9, align 8
  %137 = call i64 @strlen(ptr noundef %136) #13
  %138 = add i64 %137, 1
  %139 = load ptr, ptr %9, align 8
  %140 = getelementptr inbounds nuw i8, ptr %139, i64 %138
  store ptr %140, ptr %9, align 8
  br label %141

141:                                              ; preds = %120
  %142 = load i32, ptr %14, align 4
  %143 = add nsw i32 %142, 1
  store i32 %143, ptr %14, align 4
  br label %115

144:                                              ; preds = %115
  %145 = load ptr, ptr %9, align 8
  %146 = load ptr, ptr %4, align 8
  %147 = getelementptr inbounds nuw %struct.uv_group_s, ptr %146, i32 0, i32 0
  store ptr %145, ptr %147, align 8
  %148 = load ptr, ptr %4, align 8
  %149 = getelementptr inbounds nuw %struct.uv_group_s, ptr %148, i32 0, i32 0
  %150 = load ptr, ptr %149, align 8
  %151 = getelementptr inbounds nuw %struct.group, ptr %6, i32 0, i32 0
  %152 = load ptr, ptr %151, align 8
  %153 = load i64, ptr %11, align 8
  call void @llvm.memcpy.p0.p0.i64(ptr align 1 %150, ptr align 1 %152, i64 %153, i1 false)
  %154 = load i64, ptr %11, align 8
  %155 = load ptr, ptr %9, align 8
  %156 = getelementptr inbounds nuw i8, ptr %155, i64 %154
  store ptr %156, ptr %9, align 8
  %157 = getelementptr inbounds nuw %struct.group, ptr %6, i32 0, i32 2
  %158 = load i32, ptr %157, align 8
  %159 = zext i32 %158 to i64
  %160 = load ptr, ptr %4, align 8
  %161 = getelementptr inbounds nuw %struct.uv_group_s, ptr %160, i32 0, i32 1
  store i64 %159, ptr %161, align 8
  %162 = load ptr, ptr %8, align 8
  call void @uv__free(ptr noundef %162)
  store i32 0, ptr %3, align 4
  store i32 1, ptr %15, align 4
  br label %163

163:                                              ; preds = %144, %98, %60, %54, %25, %18
  call void @llvm.lifetime.end.p0(i64 4, ptr %14) #11
  call void @llvm.lifetime.end.p0(i64 8, ptr %13) #11
  call void @llvm.lifetime.end.p0(i64 8, ptr %12) #11
  call void @llvm.lifetime.end.p0(i64 8, ptr %11) #11
  call void @llvm.lifetime.end.p0(i64 8, ptr %10) #11
  call void @llvm.lifetime.end.p0(i64 8, ptr %9) #11
  call void @llvm.lifetime.end.p0(i64 8, ptr %8) #11
  call void @llvm.lifetime.end.p0(i64 8, ptr %7) #11
  call void @llvm.lifetime.end.p0(i64 32, ptr %6) #11
  %164 = load i32, ptr %3, align 4
  ret i32 %164
}