; Function Attrs: nounwind uwtable
define dso_local range(i32 -2147483647, -2147483648) i32 @uv_os_get_group(ptr noundef captures(address_is_null) %0, i32 noundef %1) local_unnamed_addr #0 {
  %3 = alloca %struct.group, align 8
  %4 = alloca ptr, align 8
  call void @llvm.lifetime.start.p0(i64 32, ptr nonnull %3) #23
  call void @llvm.lifetime.start.p0(i64 8, ptr nonnull %4) #23
  %5 = icmp eq ptr %0, null
  br i1 %5, label %.loopexit, label %.preheader61

.preheader61:                                     ; preds = %2
  %6 = tail call ptr @uv__malloc(i64 noundef 2000) #23
  %7 = icmp eq ptr %6, null
  br i1 %7, label %.loopexit, label %.preheader

8:                                                ; preds = %20
  %9 = shl i64 %.05069, 1
  %10 = call ptr @uv__malloc(i64 noundef %9) #23
  %11 = icmp eq ptr %10, null
  br i1 %11, label %.loopexit, label %.preheader

.preheader:                                       ; preds = %.preheader61, %8
  %12 = phi ptr [ %10, %8 ], [ %6, %.preheader61 ]
  %.05069 = phi i64 [ %9, %8 ], [ 2000, %.preheader61 ]
  br label %13

13:                                               ; preds = %.preheader, %13
  %14 = call i32 @getgrgid_r(i32 noundef %1, ptr noundef nonnull %3, ptr noundef nonnull %12, i64 noundef %.05069, ptr noundef nonnull %4) #23
  %15 = icmp eq i32 %14, 4
  br i1 %15, label %13, label %16

16:                                               ; preds = %13
  %17 = icmp ne i32 %14, 0
  %18 = load ptr, ptr %4, align 8
  %19 = icmp eq ptr %18, null
  %or.cond = select i1 %17, i1 true, i1 %19
  br i1 %or.cond, label %20, label %.thread60

20:                                               ; preds = %16
  call void @uv__free(ptr noundef nonnull %12) #23
  %.not = icmp eq i32 %14, 34
  br i1 %.not, label %8, label %21

21:                                               ; preds = %20
  br i1 %17, label %22, label %24

22:                                               ; preds = %21
  %23 = sub nsw i32 0, %14
  br label %.loopexit

24:                                               ; preds = %21
  %.pr = load ptr, ptr %4, align 8
  %25 = icmp eq ptr %.pr, null
  br i1 %25, label %.loopexit, label %.thread60

.thread60:                                        ; preds = %16, %24
  %26 = load ptr, ptr %3, align 8
  %27 = call i64 @strlen(ptr noundef nonnull dereferenceable(1) %26) #25
  %28 = add i64 %27, 1
  %29 = getelementptr inbounds nuw i8, ptr %3, i64 24
  %30 = load ptr, ptr %29, align 8
  %31 = load ptr, ptr %30, align 8
  %.not5770 = icmp eq ptr %31, null
  br i1 %.not5770, label %._crit_edge, label %.lr.ph

.lr.ph:                                           ; preds = %.thread60, %.lr.ph
  %32 = phi ptr [ %38, %.lr.ph ], [ %31, %.thread60 ]
  %.04772 = phi i64 [ %35, %.lr.ph ], [ 8, %.thread60 ]
  %.04871 = phi i64 [ %36, %.lr.ph ], [ 0, %.thread60 ]
  %33 = call i64 @strlen(ptr noundef nonnull dereferenceable(1) %32) #25
  %34 = add i64 %.04772, 9
  %35 = add i64 %34, %33
  %36 = add nuw nsw i64 %.04871, 1
  %37 = getelementptr inbounds nuw ptr, ptr %30, i64 %36
  %38 = load ptr, ptr %37, align 8
  %.not57 = icmp eq ptr %38, null
  br i1 %.not57, label %._crit_edge, label %.lr.ph

._crit_edge:                                      ; preds = %.lr.ph, %.thread60
  %.048.lcssa = phi i64 [ 0, %.thread60 ], [ %36, %.lr.ph ]
  %.047.lcssa = phi i64 [ 8, %.thread60 ], [ %35, %.lr.ph ]
  %39 = add i64 %.047.lcssa, %28
  %40 = call ptr @uv__malloc(i64 noundef %39) #23
  %41 = icmp eq ptr %40, null
  br i1 %41, label %42, label %43

42:                                               ; preds = %._crit_edge
  call void @uv__free(ptr noundef nonnull %12) #23
  br label %.loopexit

43:                                               ; preds = %._crit_edge
  %44 = getelementptr inbounds nuw i8, ptr %0, i64 16
  store ptr %40, ptr %44, align 8
  %45 = getelementptr inbounds nuw ptr, ptr %40, i64 %.048.lcssa
  store ptr null, ptr %45, align 8
  %46 = load ptr, ptr %44, align 8
  %47 = getelementptr inbounds nuw ptr, ptr %46, i64 %.048.lcssa
  %48 = getelementptr inbounds nuw i8, ptr %47, i64 8
  %.not81 = icmp eq i64 %.048.lcssa, 0
  br i1 %.not81, label %._crit_edge79, label %.lr.ph78

.lr.ph78:                                         ; preds = %43, %.lr.ph78
  %indvars.iv = phi i64 [ %indvars.iv.next, %.lr.ph78 ], [ 0, %43 ]
  %.05175 = phi ptr [ %57, %.lr.ph78 ], [ %48, %43 ]
  %49 = load ptr, ptr %44, align 8
  %50 = getelementptr inbounds nuw ptr, ptr %49, i64 %indvars.iv
  store ptr %.05175, ptr %50, align 8
  %51 = load ptr, ptr %29, align 8
  %52 = getelementptr inbounds nuw ptr, ptr %51, i64 %indvars.iv
  %53 = load ptr, ptr %52, align 8
  %54 = call ptr @strcpy(ptr noundef nonnull dereferenceable(1) %.05175, ptr noundef nonnull dereferenceable(1) %53) #23
  %55 = call i64 @strlen(ptr noundef nonnull dereferenceable(1) %.05175) #25
  %56 = getelementptr i8, ptr %.05175, i64 %55
  %57 = getelementptr i8, ptr %56, i64 1
  %indvars.iv.next = add nuw nsw i64 %indvars.iv, 1
  %exitcond.not = icmp eq i64 %indvars.iv.next, %.048.lcssa
  br i1 %exitcond.not, label %._crit_edge79, label %.lr.ph78

._crit_edge79:                                    ; preds = %.lr.ph78, %43
  %.051.lcssa = phi ptr [ %48, %43 ], [ %57, %.lr.ph78 ]
  store ptr %.051.lcssa, ptr %0, align 8
  %58 = load ptr, ptr %3, align 8
  call void @llvm.memcpy.p0.p0.i64(ptr align 1 %.051.lcssa, ptr align 1 %58, i64 %28, i1 false)
  %59 = getelementptr inbounds nuw i8, ptr %3, i64 16
  %60 = load i32, ptr %59, align 8
  %61 = zext i32 %60 to i64
  %62 = getelementptr inbounds nuw i8, ptr %0, i64 8
  store i64 %61, ptr %62, align 8
  call void @uv__free(ptr noundef nonnull %12) #23
  br label %.loopexit

.loopexit:                                        ; preds = %8, %.preheader61, %24, %2, %._crit_edge79, %42, %22
  %.049 = phi i32 [ %23, %22 ], [ -12, %42 ], [ 0, %._crit_edge79 ], [ -22, %2 ], [ -2, %24 ], [ -12, %.preheader61 ], [ -12, %8 ]
  call void @llvm.lifetime.end.p0(i64 8, ptr nonnull %4) #23
  call void @llvm.lifetime.end.p0(i64 32, ptr nonnull %3) #23
  ret i32 %.049
}